; Function Attrs: mustprogress nofree norecurse nounwind willreturn memory(argmem: readwrite) uwtable
define void @_ZN7rocksdb7blob_db8BlobFile19SetFromFooterLockedERKNS_13BlobLogFooterE(ptr dead_on_unwind noalias writable writeonly sret(%"class.rocksdb::Status") align 8 captures(none) initializes((0, 6), (8, 16)) %0, ptr noundef nonnull writeonly align 8 captures(none) dereferenceable(314) %1, ptr noundef nonnull readonly align 8 captures(none) dereferenceable(28) %2) local_unnamed_addr #13 align 2 personality ptr @__gxx_personality_v0 {
  %4 = load i64, ptr %2, align 8, !tbaa !93
  %5 = getelementptr inbounds nuw i8, ptr %1, i64 136
  store atomic i64 %4, ptr %5 seq_cst, align 8
  %6 = getelementptr inbounds nuw i8, ptr %2, i64 8
  %7 = getelementptr inbounds nuw i8, ptr %1, i64 120
  %8 = load i64, ptr %6, align 8, !tbaa !97
  store i64 %8, ptr %7, align 8, !tbaa !97
  %9 = getelementptr inbounds nuw i8, ptr %2, i64 16
  %10 = load i64, ptr %9, align 8, !tbaa !98
  %11 = getelementptr inbounds nuw i8, ptr %1, i64 128
  store i64 %10, ptr %11, align 8, !tbaa !98
  %12 = getelementptr inbounds nuw i8, ptr %1, i64 184
  store atomic i8 1, ptr %12 seq_cst, align 8
  %13 = getelementptr inbounds nuw i8, ptr %0, i64 8
  store ptr null, ptr %13, align 8, !tbaa !170, !alias.scope !171
  tail call void @llvm.memset.p0.i64(ptr noundef nonnull align 8 dereferenceable(16) %0, i8 0, i64 6, i1 false), !alias.scope !171
  ret void
}